target datalayout = "e-m:e-p270:32:32-p271:32:32-p272:64:64-i64:64-i128:128-f80:128-n8:16:32:64-S128"
target triple = "x86_64-pc-linux-gnu"

%struct._wmem_block_allocator_t = type { ptr, ptr, ptr }
%struct._wmem_block_free_t = type { ptr, ptr }
%struct._wmem_block_chunk_t = type { i32, i32 }

; Function Attrs: nounwind null_pointer_is_valid sspstrong uwtable
define internal void @wmem_block_remove_from_recycler(ptr noundef %0, ptr noundef %1) #5 {
  %3 = alloca ptr, align 8
  %4 = alloca ptr, align 8
  %5 = alloca ptr, align 8
  store ptr %0, ptr %3, align 8
  store ptr %1, ptr %4, align 8
  call void @llvm.lifetime.start.p0(i64 8, ptr %5) #10
  %6 = load ptr, ptr %4, align 8
  %7 = getelementptr i8, ptr %6, i64 16
  store ptr %7, ptr %5, align 8
  %8 = load ptr, ptr %5, align 8
  %9 = getelementptr inbounds nuw %struct._wmem_block_free_t, ptr %8, i32 0, i32 0
  %10 = load ptr, ptr %9, align 8
  %11 = load ptr, ptr %4, align 8
  %12 = icmp eq ptr %10, %11
  br i1 %12, label %13, label %22

13:                                               ; preds = %2
  %14 = load ptr, ptr %5, align 8
  %15 = getelementptr inbounds nuw %struct._wmem_block_free_t, ptr %14, i32 0, i32 1
  %16 = load ptr, ptr %15, align 8
  %17 = load ptr, ptr %4, align 8
  %18 = icmp eq ptr %16, %17
  br i1 %18, label %19, label %22

19:                                               ; preds = %13
  %20 = load ptr, ptr %3, align 8
  %21 = getelementptr inbounds nuw %struct._wmem_block_allocator_t, ptr %20, i32 0, i32 2
  store ptr null, ptr %21, align 8
  br label %51

22:                                               ; preds = %13, %2
  %23 = load ptr, ptr %5, align 8
  %24 = getelementptr inbounds nuw %struct._wmem_block_free_t, ptr %23, i32 0, i32 1
  %25 = load ptr, ptr %24, align 8
  %26 = load ptr, ptr %5, align 8
  %27 = getelementptr inbounds nuw %struct._wmem_block_free_t, ptr %26, i32 0, i32 0
  %28 = load ptr, ptr %27, align 8
  %29 = getelementptr i8, ptr %28, i64 16
  %30 = getelementptr inbounds nuw %struct._wmem_block_free_t, ptr %29, i32 0, i32 1
  store ptr %25, ptr %30, align 8
  %31 = load ptr, ptr %5, align 8
  %32 = getelementptr inbounds nuw %struct._wmem_block_free_t, ptr %31, i32 0, i32 0
  %33 = load ptr, ptr %32, align 8
  %34 = load ptr, ptr %5, align 8
  %35 = getelementptr inbounds nuw %struct._wmem_block_free_t, ptr %34, i32 0, i32 1
  %36 = load ptr, ptr %35, align 8
  %37 = getelementptr i8, ptr %36, i64 16
  %38 = getelementptr inbounds nuw %struct._wmem_block_free_t, ptr %37, i32 0, i32 0
  store ptr %33, ptr %38, align 8
  %39 = load ptr, ptr %3, align 8
  %40 = getelementptr inbounds nuw %struct._wmem_block_allocator_t, ptr %39, i32 0, i32 2
  %41 = load ptr, ptr %40, align 8
  %42 = load ptr, ptr %4, align 8
  %43 = icmp eq ptr %41, %42
  br i1 %43, label %44, label %50

44:                                               ; preds = %22
  %45 = load ptr, ptr %5, align 8
  %46 = getelementptr inbounds nuw %struct._wmem_block_free_t, ptr %45, i32 0, i32 1
  %47 = load ptr, ptr %46, align 8
  %48 = load ptr, ptr %3, align 8
  %49 = getelementptr inbounds nuw %struct._wmem_block_allocator_t, ptr %48, i32 0, i32 2
  store ptr %47, ptr %49, align 8
  br label %50

50:                                               ; preds = %44, %22
  br label %51

51:                                               ; preds = %50, %19
  call void @llvm.lifetime.end.p0(i64 8, ptr %5) #10
  ret void
}

; Function Attrs: nounwind null_pointer_is_valid sspstrong uwtable
define internal void @wmem_block_pop_master(ptr noundef %0) #5 {
  %2 = alloca ptr, align 8
  %3 = alloca ptr, align 8
  %4 = alloca ptr, align 8
  store ptr %0, ptr %2, align 8
  call void @llvm.lifetime.start.p0(i64 8, ptr %3) #10
  call void @llvm.lifetime.start.p0(i64 8, ptr %4) #10
  %5 = load ptr, ptr %2, align 8
  %6 = getelementptr inbounds nuw %struct._wmem_block_allocator_t, ptr %5, i32 0, i32 1
  %7 = load ptr, ptr %6, align 8
  store ptr %7, ptr %3, align 8
  %8 = load ptr, ptr %3, align 8
  %9 = getelementptr i8, ptr %8, i64 16
  store ptr %9, ptr %4, align 8
  %10 = load ptr, ptr %4, align 8
  %11 = getelementptr inbounds nuw %struct._wmem_block_free_t, ptr %10, i32 0, i32 1
  %12 = load ptr, ptr %11, align 8
  %13 = load ptr, ptr %2, align 8
  %14 = getelementptr inbounds nuw %struct._wmem_block_allocator_t, ptr %13, i32 0, i32 1
  store ptr %12, ptr %14, align 8
  %15 = load ptr, ptr %4, align 8
  %16 = getelementptr inbounds nuw %struct._wmem_block_free_t, ptr %15, i32 0, i32 1
  %17 = load ptr, ptr %16, align 8
  %18 = icmp ne ptr %17, null
  br i1 %18, label %19, label %25

19:                                               ; preds = %1
  %20 = load ptr, ptr %4, align 8
  %21 = getelementptr inbounds nuw %struct._wmem_block_free_t, ptr %20, i32 0, i32 1
  %22 = load ptr, ptr %21, align 8
  %23 = getelementptr i8, ptr %22, i64 16
  %24 = getelementptr inbounds nuw %struct._wmem_block_free_t, ptr %23, i32 0, i32 0
  store ptr null, ptr %24, align 8
  br label %25

25:                                               ; preds = %19, %1
  call void @llvm.lifetime.end.p0(i64 8, ptr %4) #10
  call void @llvm.lifetime.end.p0(i64 8, ptr %3) #10
  ret void
}

; Function Attrs: null_pointer_is_valid sspstrong uwtable
define internal void @wmem_block_split_free_chunk(ptr noundef %0, ptr noundef %1, i64 noundef %2) #0 {
  %4 = alloca ptr, align 8
  %5 = alloca ptr, align 8
  %6 = alloca i64, align 8
  %7 = alloca ptr, align 8
  %8 = alloca ptr, align 8
  %9 = alloca ptr, align 8
  %10 = alloca i64, align 8
  %11 = alloca i64, align 8
  %12 = alloca i8, align 1
  %13 = alloca i32, align 4
  store ptr %0, ptr %4, align 8
  store ptr %1, ptr %5, align 8
  store i64 %2, ptr %6, align 8
  call void @llvm.lifetime.start.p0(i64 8, ptr %7) #10
  call void @llvm.lifetime.start.p0(i64 8, ptr %8) #10
  call void @llvm.lifetime.start.p0(i64 8, ptr %9) #10
  call void @llvm.lifetime.start.p0(i64 8, ptr %10) #10
  call void @llvm.lifetime.start.p0(i64 8, ptr %11) #10
  call void @llvm.lifetime.start.p0(i64 1, ptr %12) #10
  %14 = load i64, ptr %6, align 8
  %15 = add i64 %14, 15
  %16 = and i64 -16, %15
  %17 = add i64 %16, 16
  store i64 %17, ptr %10, align 8
  %18 = load ptr, ptr %5, align 8
  %19 = getelementptr inbounds nuw %struct._wmem_block_chunk_t, ptr %18, i32 0, i32 1
  %20 = load i32, ptr %19, align 4
  %21 = lshr i32 %20, 3
  %22 = zext i32 %21 to i64
  %23 = sub i64 %22, 16
  %24 = load i64, ptr %10, align 8
  %25 = add i64 %24, 16
  %26 = icmp ult i64 %23, %25
  br i1 %26, label %27, label %48

27:                                               ; preds = %3
  %28 = load ptr, ptr %5, align 8
  %29 = load ptr, ptr %4, align 8
  %30 = getelementptr inbounds nuw %struct._wmem_block_allocator_t, ptr %29, i32 0, i32 1
  %31 = load ptr, ptr %30, align 8
  %32 = icmp eq ptr %28, %31
  br i1 %32, label %33, label %35

33:                                               ; preds = %27
  %34 = load ptr, ptr %4, align 8
  call void @wmem_block_pop_master(ptr noundef %34)
  br label %47

35:                                               ; preds = %27
  %36 = load ptr, ptr %5, align 8
  %37 = getelementptr inbounds nuw %struct._wmem_block_chunk_t, ptr %36, i32 0, i32 1
  %38 = load i32, ptr %37, align 4
  %39 = lshr i32 %38, 3
  %40 = zext i32 %39 to i64
  %41 = sub i64 %40, 16
  %42 = icmp uge i64 %41, 16
  br i1 %42, label %43, label %46

43:                                               ; preds = %35
  %44 = load ptr, ptr %4, align 8
  %45 = load ptr, ptr %5, align 8
  call void @wmem_block_remove_from_recycler(ptr noundef %44, ptr noundef %45)
  br label %46

46:                                               ; preds = %43, %35
  br label %47

47:                                               ; preds = %46, %33
  store i32 1, ptr %13, align 4
  br label %234

48:                                               ; preds = %3
  %49 = load ptr, ptr %5, align 8
  %50 = getelementptr inbounds nuw %struct._wmem_block_chunk_t, ptr %49, i32 0, i32 1
  %51 = load i32, ptr %50, align 4
  %52 = and i32 %51, 1
  %53 = icmp ne i32 %52, 0
  %54 = zext i1 %53 to i8
  store i8 %54, ptr %12, align 1
  %55 = load ptr, ptr %5, align 8
  %56 = getelementptr inbounds nuw %struct._wmem_block_chunk_t, ptr %55, i32 0, i32 1
  %57 = load i32, ptr %56, align 4
  %58 = lshr i32 %57, 3
  %59 = zext i32 %58 to i64
  %60 = load i64, ptr %10, align 8
  %61 = sub i64 %59, %60
  store i64 %61, ptr %11, align 8
  %62 = load i64, ptr %10, align 8
  %63 = trunc i64 %62 to i32
  %64 = load ptr, ptr %5, align 8
  %65 = getelementptr inbounds nuw %struct._wmem_block_chunk_t, ptr %64, i32 0, i32 1
  %66 = load i32, ptr %65, align 4
  %67 = and i32 %63, 536870911
  %68 = shl i32 %67, 3
  %69 = and i32 %66, 7
  %70 = or i32 %69, %68
  store i32 %70, ptr %65, align 4
  %71 = load ptr, ptr %5, align 8
  %72 = getelementptr inbounds nuw %struct._wmem_block_chunk_t, ptr %71, i32 0, i32 1
  %73 = load i32, ptr %72, align 4
  %74 = and i32 %73, -2
  %75 = or i32 %74, 0
  store i32 %75, ptr %72, align 4
  %76 = load ptr, ptr %5, align 8
  %77 = getelementptr inbounds nuw %struct._wmem_block_chunk_t, ptr %76, i32 0, i32 1
  %78 = load i32, ptr %77, align 4
  %79 = and i32 %78, 1
  %80 = icmp ne i32 %79, 0
  br i1 %80, label %81, label %82

81:                                               ; preds = %48
  br label %90

82:                                               ; preds = %48
  %83 = load ptr, ptr %5, align 8
  %84 = load ptr, ptr %5, align 8
  %85 = getelementptr inbounds nuw %struct._wmem_block_chunk_t, ptr %84, i32 0, i32 1
  %86 = load i32, ptr %85, align 4
  %87 = lshr i32 %86, 3
  %88 = sext i32 %87 to i64
  %89 = getelementptr i8, ptr %83, i64 %88
  br label %90

90:                                               ; preds = %82, %81
  %91 = phi ptr [ null, %81 ], [ %89, %82 ]
  store ptr %91, ptr %7, align 8
  %92 = load ptr, ptr %5, align 8
  %93 = getelementptr i8, ptr %92, i64 16
  store ptr %93, ptr %8, align 8
  %94 = load ptr, ptr %7, align 8
  %95 = getelementptr i8, ptr %94, i64 16
  store ptr %95, ptr %9, align 8
  %96 = load ptr, ptr %4, align 8
  %97 = getelementptr inbounds nuw %struct._wmem_block_allocator_t, ptr %96, i32 0, i32 1
  %98 = load ptr, ptr %97, align 8
  %99 = load ptr, ptr %5, align 8
  %100 = icmp eq ptr %98, %99
  br i1 %100, label %101, label %127

101:                                              ; preds = %90
  %102 = load ptr, ptr %8, align 8
  %103 = getelementptr inbounds nuw %struct._wmem_block_free_t, ptr %102, i32 0, i32 0
  %104 = load ptr, ptr %103, align 8
  %105 = load ptr, ptr %9, align 8
  %106 = getelementptr inbounds nuw %struct._wmem_block_free_t, ptr %105, i32 0, i32 0
  store ptr %104, ptr %106, align 8
  %107 = load ptr, ptr %8, align 8
  %108 = getelementptr inbounds nuw %struct._wmem_block_free_t, ptr %107, i32 0, i32 1
  %109 = load ptr, ptr %108, align 8
  %110 = load ptr, ptr %9, align 8
  %111 = getelementptr inbounds nuw %struct._wmem_block_free_t, ptr %110, i32 0, i32 1
  store ptr %109, ptr %111, align 8
  %112 = load ptr, ptr %8, align 8
  %113 = getelementptr inbounds nuw %struct._wmem_block_free_t, ptr %112, i32 0, i32 1
  %114 = load ptr, ptr %113, align 8
  %115 = icmp ne ptr %114, null
  br i1 %115, label %116, label %123

116:                                              ; preds = %101
  %117 = load ptr, ptr %7, align 8
  %118 = load ptr, ptr %8, align 8
  %119 = getelementptr inbounds nuw %struct._wmem_block_free_t, ptr %118, i32 0, i32 1
  %120 = load ptr, ptr %119, align 8
  %121 = getelementptr i8, ptr %120, i64 16
  %122 = getelementptr inbounds nuw %struct._wmem_block_free_t, ptr %121, i32 0, i32 0
  store ptr %117, ptr %122, align 8
  br label %123

123:                                              ; preds = %116, %101
  %124 = load ptr, ptr %7, align 8
  %125 = load ptr, ptr %4, align 8
  %126 = getelementptr inbounds nuw %struct._wmem_block_allocator_t, ptr %125, i32 0, i32 1
  store ptr %124, ptr %126, align 8
  br label %174

127:                                              ; preds = %90
  %128 = load ptr, ptr %8, align 8
  %129 = getelementptr inbounds nuw %struct._wmem_block_free_t, ptr %128, i32 0, i32 0
  %130 = load ptr, ptr %129, align 8
  %131 = load ptr, ptr %5, align 8
  %132 = icmp eq ptr %130, %131
  br i1 %132, label %133, label %140

133:                                              ; preds = %127
  %134 = load ptr, ptr %7, align 8
  %135 = load ptr, ptr %9, align 8
  %136 = getelementptr inbounds nuw %struct._wmem_block_free_t, ptr %135, i32 0, i32 0
  store ptr %134, ptr %136, align 8
  %137 = load ptr, ptr %7, align 8
  %138 = load ptr, ptr %9, align 8
  %139 = getelementptr inbounds nuw %struct._wmem_block_free_t, ptr %138, i32 0, i32 1
  store ptr %137, ptr %139, align 8
  br label %163

140:                                              ; preds = %127
  %141 = load ptr, ptr %8, align 8
  %142 = getelementptr inbounds nuw %struct._wmem_block_free_t, ptr %141, i32 0, i32 0
  %143 = load ptr, ptr %142, align 8
  %144 = load ptr, ptr %9, align 8
  %145 = getelementptr inbounds nuw %struct._wmem_block_free_t, ptr %144, i32 0, i32 0
  store ptr %143, ptr %145, align 8
  %146 = load ptr, ptr %8, align 8
  %147 = getelementptr inbounds nuw %struct._wmem_block_free_t, ptr %146, i32 0, i32 1
  %148 = load ptr, ptr %147, align 8
  %149 = load ptr, ptr %9, align 8
  %150 = getelementptr inbounds nuw %struct._wmem_block_free_t, ptr %149, i32 0, i32 1
  store ptr %148, ptr %150, align 8
  %151 = load ptr, ptr %7, align 8
  %152 = load ptr, ptr %8, align 8
  %153 = getelementptr inbounds nuw %struct._wmem_block_free_t, ptr %152, i32 0, i32 0
  %154 = load ptr, ptr %153, align 8
  %155 = getelementptr i8, ptr %154, i64 16
  %156 = getelementptr inbounds nuw %struct._wmem_block_free_t, ptr %155, i32 0, i32 1
  store ptr %151, ptr %156, align 8
  %157 = load ptr, ptr %7, align 8
  %158 = load ptr, ptr %8, align 8
  %159 = getelementptr inbounds nuw %struct._wmem_block_free_t, ptr %158, i32 0, i32 1
  %160 = load ptr, ptr %159, align 8
  %161 = getelementptr i8, ptr %160, i64 16
  %162 = getelementptr inbounds nuw %struct._wmem_block_free_t, ptr %161, i32 0, i32 0
  store ptr %157, ptr %162, align 8
  br label %163

163:                                              ; preds = %140, %133
  %164 = load ptr, ptr %4, align 8
  %165 = getelementptr inbounds nuw %struct._wmem_block_allocator_t, ptr %164, i32 0, i32 2
  %166 = load ptr, ptr %165, align 8
  %167 = load ptr, ptr %5, align 8
  %168 = icmp eq ptr %166, %167
  br i1 %168, label %169, label %173

169:                                              ; preds = %163
  %170 = load ptr, ptr %7, align 8
  %171 = load ptr, ptr %4, align 8
  %172 = getelementptr inbounds nuw %struct._wmem_block_allocator_t, ptr %171, i32 0, i32 2
  store ptr %170, ptr %172, align 8
  br label %173

173:                                              ; preds = %169, %163
  br label %174

174:                                              ; preds = %173, %123
  %175 = load i64, ptr %11, align 8
  %176 = trunc i64 %175 to i32
  %177 = load ptr, ptr %7, align 8
  %178 = getelementptr inbounds nuw %struct._wmem_block_chunk_t, ptr %177, i32 0, i32 1
  %179 = load i32, ptr %178, align 4
  %180 = and i32 %176, 536870911
  %181 = shl i32 %180, 3
  %182 = and i32 %179, 7
  %183 = or i32 %182, %181
  store i32 %183, ptr %178, align 4
  %184 = load i8, ptr %12, align 1, !range !13, !noundef !14
  %185 = trunc i8 %184 to i1
  %186 = zext i1 %185 to i32
  %187 = load ptr, ptr %7, align 8
  %188 = getelementptr inbounds nuw %struct._wmem_block_chunk_t, ptr %187, i32 0, i32 1
  %189 = load i32, ptr %188, align 4
  %190 = and i32 %186, 1
  %191 = and i32 %189, -2
  %192 = or i32 %191, %190
  store i32 %192, ptr %188, align 4
  %193 = load ptr, ptr %5, align 8
  %194 = getelementptr inbounds nuw %struct._wmem_block_chunk_t, ptr %193, i32 0, i32 1
  %195 = load i32, ptr %194, align 4
  %196 = lshr i32 %195, 3
  %197 = load ptr, ptr %7, align 8
  %198 = getelementptr inbounds nuw %struct._wmem_block_chunk_t, ptr %197, i32 0, i32 0
  store i32 %196, ptr %198, align 4
  %199 = load ptr, ptr %7, align 8
  %200 = getelementptr inbounds nuw %struct._wmem_block_chunk_t, ptr %199, i32 0, i32 1
  %201 = load i32, ptr %200, align 4
  %202 = and i32 %201, -3
  %203 = or i32 %202, 0
  store i32 %203, ptr %200, align 4
  %204 = load ptr, ptr %7, align 8
  %205 = getelementptr inbounds nuw %struct._wmem_block_chunk_t, ptr %204, i32 0, i32 1
  %206 = load i32, ptr %205, align 4
  %207 = and i32 %206, -5
  %208 = or i32 %207, 0
  store i32 %208, ptr %205, align 4
  %209 = load i8, ptr %12, align 1, !range !13, !noundef !14
  %210 = trunc i8 %209 to i1
  br i1 %210, label %233, label %211

211:                                              ; preds = %174
  %212 = load ptr, ptr %7, align 8
  %213 = getelementptr inbounds nuw %struct._wmem_block_chunk_t, ptr %212, i32 0, i32 1
  %214 = load i32, ptr %213, align 4
  %215 = lshr i32 %214, 3
  %216 = load ptr, ptr %7, align 8
  %217 = getelementptr inbounds nuw %struct._wmem_block_chunk_t, ptr %216, i32 0, i32 1
  %218 = load i32, ptr %217, align 4
  %219 = and i32 %218, 1
  %220 = icmp ne i32 %219, 0
  br i1 %220, label %221, label %222

221:                                              ; preds = %211
  br label %230

222:                                              ; preds = %211
  %223 = load ptr, ptr %7, align 8
  %224 = load ptr, ptr %7, align 8
  %225 = getelementptr inbounds nuw %struct._wmem_block_chunk_t, ptr %224, i32 0, i32 1
  %226 = load i32, ptr %225, align 4
  %227 = lshr i32 %226, 3
  %228 = sext i32 %227 to i64
  %229 = getelementptr i8, ptr %223, i64 %228
  br label %230

230:                                              ; preds = %222, %221
  %231 = phi ptr [ null, %221 ], [ %229, %222 ]
  %232 = getelementptr inbounds nuw %struct._wmem_block_chunk_t, ptr %231, i32 0, i32 0
  store i32 %215, ptr %232, align 4
  br label %233

233:                                              ; preds = %230, %174
  store i32 0, ptr %13, align 4
  br label %234

234:                                              ; preds = %233, %47
  call void @llvm.lifetime.end.p0(i64 1, ptr %12) #10
  call void @llvm.lifetime.end.p0(i64 8, ptr %11) #10
  call void @llvm.lifetime.end.p0(i64 8, ptr %10) #10
  call void @llvm.lifetime.end.p0(i64 8, ptr %9) #10
  call void @llvm.lifetime.end.p0(i64 8, ptr %8) #10
  call void @llvm.lifetime.end.p0(i64 8, ptr %7) #10
  %235 = load i32, ptr %13, align 4
  switch i32 %235, label %237 [
    i32 0, label %236
    i32 1, label %236
  ]

236:                                              ; preds = %234, %234
  ret void

237:                                              ; preds = %234
  unreachable
}