; Function Attrs: mustprogress nofree norecurse nosync nounwind null_pointer_is_valid sspstrong willreturn memory(readwrite, inaccessiblemem: none) uwtable
define internal fastcc void @wmem_block_split_free_chunk(ptr noundef captures(none) %0, ptr noundef %1, i64 noundef range(i64 0, -16) %2) unnamed_addr #3 {
  %4 = add nuw i64 %2, 15
  %5 = and i64 %4, -16
  %6 = getelementptr inbounds nuw i8, ptr %1, i64 4
  %7 = load i32, ptr %6, align 4
  %8 = lshr i32 %7, 3
  %9 = zext nneg i32 %8 to i64
  %10 = add nsw i64 %9, -16
  %11 = add i64 %5, 32
  %12 = icmp ult i64 %10, %11
  br i1 %12, label %13, label %42

13:                                               ; preds = %3
  %14 = getelementptr inbounds nuw i8, ptr %0, i64 8
  %15 = load ptr, ptr %14, align 8
  %16 = icmp eq ptr %1, %15
  br i1 %16, label %17, label %22

17:                                               ; preds = %13
  %18 = getelementptr i8, ptr %15, i64 24
  %19 = load ptr, ptr %18, align 8
  store ptr %19, ptr %14, align 8
  %.not.i = icmp eq ptr %19, null
  br i1 %.not.i, label %wmem_block_pop_master.exit, label %20

20:                                               ; preds = %17
  %21 = getelementptr i8, ptr %19, i64 16
  store ptr null, ptr %21, align 8
  br label %wmem_block_pop_master.exit

22:                                               ; preds = %13
  %23 = icmp ugt i64 %10, 15
  br i1 %23, label %24, label %wmem_block_pop_master.exit

24:                                               ; preds = %22
  %25 = getelementptr i8, ptr %1, i64 16
  %26 = load ptr, ptr %25, align 8
  %27 = icmp eq ptr %26, %1
  %28 = getelementptr i8, ptr %1, i64 24
  %29 = load ptr, ptr %28, align 8
  %30 = icmp eq ptr %29, %1
  %or.cond.i = select i1 %27, i1 %30, i1 false
  br i1 %or.cond.i, label %31, label %._crit_edge.i

31:                                               ; preds = %24
  %32 = getelementptr inbounds nuw i8, ptr %0, i64 16
  store ptr null, ptr %32, align 8
  br label %wmem_block_pop_master.exit

._crit_edge.i:                                    ; preds = %24
  %33 = getelementptr i8, ptr %26, i64 24
  store ptr %29, ptr %33, align 8
  %34 = load ptr, ptr %25, align 8
  %35 = load ptr, ptr %28, align 8
  %36 = getelementptr i8, ptr %35, i64 16
  store ptr %34, ptr %36, align 8
  %37 = getelementptr inbounds nuw i8, ptr %0, i64 16
  %38 = load ptr, ptr %37, align 8
  %39 = icmp eq ptr %38, %1
  br i1 %39, label %40, label %wmem_block_pop_master.exit

40:                                               ; preds = %._crit_edge.i
  %41 = load ptr, ptr %28, align 8
  store ptr %41, ptr %37, align 8
  br label %wmem_block_pop_master.exit

42:                                               ; preds = %3
  %43 = add i64 %5, 16
  %44 = and i32 %7, 1
  %.not64 = icmp eq i32 %44, 0
  %45 = trunc i64 %43 to i32
  %46 = shl i32 %45, 3
  %47 = and i32 %7, 6
  %48 = or disjoint i32 %47, %46
  store i32 %48, ptr %6, align 4
  %49 = and i64 %43, 536870896
  %50 = getelementptr i8, ptr %1, i64 %49
  %51 = getelementptr i8, ptr %1, i64 16
  %52 = getelementptr i8, ptr %50, i64 16
  %53 = getelementptr inbounds nuw i8, ptr %0, i64 8
  %54 = load ptr, ptr %53, align 8
  %55 = icmp eq ptr %54, %1
  %56 = load ptr, ptr %51, align 8
  br i1 %55, label %57, label %64

57:                                               ; preds = %42
  store ptr %56, ptr %52, align 8
  %58 = getelementptr i8, ptr %1, i64 24
  %59 = load ptr, ptr %58, align 8
  %60 = getelementptr i8, ptr %50, i64 24
  store ptr %59, ptr %60, align 8
  %.not = icmp eq ptr %59, null
  br i1 %.not, label %63, label %61

61:                                               ; preds = %57
  %62 = getelementptr i8, ptr %59, i64 16
  store ptr %50, ptr %62, align 8
  br label %63

63:                                               ; preds = %61, %57
  store ptr %50, ptr %53, align 8
  br label %81

64:                                               ; preds = %42
  %65 = icmp eq ptr %56, %1
  br i1 %65, label %66, label %68

66:                                               ; preds = %64
  store ptr %50, ptr %52, align 8
  %67 = getelementptr i8, ptr %50, i64 24
  store ptr %50, ptr %67, align 8
  br label %76

68:                                               ; preds = %64
  store ptr %56, ptr %52, align 8
  %69 = getelementptr i8, ptr %1, i64 24
  %70 = load ptr, ptr %69, align 8
  %71 = getelementptr i8, ptr %50, i64 24
  store ptr %70, ptr %71, align 8
  %72 = load ptr, ptr %51, align 8
  %73 = getelementptr i8, ptr %72, i64 24
  store ptr %50, ptr %73, align 8
  %74 = load ptr, ptr %69, align 8
  %75 = getelementptr i8, ptr %74, i64 16
  store ptr %50, ptr %75, align 8
  br label %76

76:                                               ; preds = %68, %66
  %77 = getelementptr inbounds nuw i8, ptr %0, i64 16
  %78 = load ptr, ptr %77, align 8
  %79 = icmp eq ptr %78, %1
  br i1 %79, label %80, label %81

80:                                               ; preds = %76
  store ptr %50, ptr %77, align 8
  br label %81

81:                                               ; preds = %76, %80, %63
  %82 = sub i32 %8, %45
  %83 = getelementptr inbounds nuw i8, ptr %50, i64 4
  %84 = load i32, ptr %83, align 4
  %85 = shl i32 %82, 3
  %86 = and i32 %84, 6
  %87 = or disjoint i32 %44, %86
  %88 = or disjoint i32 %87, %85
  store i32 %88, ptr %83, align 4
  %89 = load i32, ptr %6, align 4
  %90 = lshr i32 %89, 3
  store i32 %90, ptr %50, align 4
  %91 = or disjoint i32 %85, %44
  store i32 %91, ptr %83, align 4
  br i1 %.not64, label %92, label %wmem_block_pop_master.exit

92:                                               ; preds = %81
  %93 = and i32 %82, 536870911
  %94 = zext nneg i32 %93 to i64
  %95 = getelementptr i8, ptr %50, i64 %94
  store i32 %93, ptr %95, align 4
  br label %wmem_block_pop_master.exit

wmem_block_pop_master.exit:                       ; preds = %40, %._crit_edge.i, %31, %20, %17, %81, %92, %22
  ret void
}